target datalayout = "e-m:e-p270:32:32-p271:32:32-p272:64:64-i64:64-i128:128-f80:128-n8:16:32:64-S128"
target triple = "x86_64-pc-linux-gnu"

%"class.OpenSubdiv::v3_6_0::Sdc::Options" = type { i8, i8, i8, i8 }
%"class.OpenSubdiv::v3_6_0::Far::TopologyRefiner" = type { i32, %"class.OpenSubdiv::v3_6_0::Sdc::Options", i16, [2 x i8], %"struct.OpenSubdiv::v3_6_0::Far::TopologyRefiner::UniformOptions", %"struct.OpenSubdiv::v3_6_0::Far::TopologyRefiner::AdaptiveOptions", i32, i32, i32, i32, i32, i8, %"class.std::vector", %"class.std::vector.0", %"class.std::vector.5" }
%"struct.OpenSubdiv::v3_6_0::Far::TopologyRefiner::UniformOptions" = type { i8, [3 x i8] }
%"struct.OpenSubdiv::v3_6_0::Far::TopologyRefiner::AdaptiveOptions" = type { i16, [2 x i8] }
%"class.std::vector" = type { %"struct.std::_Vector_base" }
%"struct.std::_Vector_base" = type { %"struct.std::_Vector_base<OpenSubdiv::v3_6_0::Vtr::internal::Level *, std::allocator<OpenSubdiv::v3_6_0::Vtr::internal::Level *>>::_Vector_impl" }
%"struct.std::_Vector_base<OpenSubdiv::v3_6_0::Vtr::internal::Level *, std::allocator<OpenSubdiv::v3_6_0::Vtr::internal::Level *>>::_Vector_impl" = type { %"struct.std::_Vector_base<OpenSubdiv::v3_6_0::Vtr::internal::Level *, std::allocator<OpenSubdiv::v3_6_0::Vtr::internal::Level *>>::_Vector_impl_data" }
%"struct.std::_Vector_base<OpenSubdiv::v3_6_0::Vtr::internal::Level *, std::allocator<OpenSubdiv::v3_6_0::Vtr::internal::Level *>>::_Vector_impl_data" = type { ptr, ptr, ptr }
%"class.std::vector.0" = type { %"struct.std::_Vector_base.1" }
%"struct.std::_Vector_base.1" = type { %"struct.std::_Vector_base<OpenSubdiv::v3_6_0::Vtr::internal::Refinement *, std::allocator<OpenSubdiv::v3_6_0::Vtr::internal::Refinement *>>::_Vector_impl" }
%"struct.std::_Vector_base<OpenSubdiv::v3_6_0::Vtr::internal::Refinement *, std::allocator<OpenSubdiv::v3_6_0::Vtr::internal::Refinement *>>::_Vector_impl" = type { %"struct.std::_Vector_base<OpenSubdiv::v3_6_0::Vtr::internal::Refinement *, std::allocator<OpenSubdiv::v3_6_0::Vtr::internal::Refinement *>>::_Vector_impl_data" }
%"struct.std::_Vector_base<OpenSubdiv::v3_6_0::Vtr::internal::Refinement *, std::allocator<OpenSubdiv::v3_6_0::Vtr::internal::Refinement *>>::_Vector_impl_data" = type { ptr, ptr, ptr }
%"class.std::vector.5" = type { %"struct.std::_Vector_base.6" }
%"struct.std::_Vector_base.6" = type { %"struct.std::_Vector_base<OpenSubdiv::v3_6_0::Far::TopologyLevel, std::allocator<OpenSubdiv::v3_6_0::Far::TopologyLevel>>::_Vector_impl" }
%"struct.std::_Vector_base<OpenSubdiv::v3_6_0::Far::TopologyLevel, std::allocator<OpenSubdiv::v3_6_0::Far::TopologyLevel>>::_Vector_impl" = type { %"struct.std::_Vector_base<OpenSubdiv::v3_6_0::Far::TopologyLevel, std::allocator<OpenSubdiv::v3_6_0::Far::TopologyLevel>>::_Vector_impl_data" }
%"struct.std::_Vector_base<OpenSubdiv::v3_6_0::Far::TopologyLevel, std::allocator<OpenSubdiv::v3_6_0::Far::TopologyLevel>>::_Vector_impl_data" = type { ptr, ptr, ptr }
%"class.OpenSubdiv::v3_6_0::Far::TopologyLevel" = type { ptr, ptr, ptr }

; Function Attrs: mustprogress nounwind uwtable
define linkonce_odr noundef nonnull align 8 dereferenceable(8) ptr @_ZNSt6vectorIPN10OpenSubdiv6v3_6_03Vtr8internal10RefinementESaIS5_EEixEm(ptr noundef nonnull align 8 dereferenceable(24) %0, i64 noundef %1) #3 comdat align 2 {
  %3 = alloca ptr, align 8
  %4 = alloca i64, align 8
  store ptr %0, ptr %3, align 8
  store i64 %1, ptr %4, align 8
  %5 = load ptr, ptr %3, align 8
  %6 = getelementptr inbounds nuw %"struct.std::_Vector_base.1", ptr %5, i32 0, i32 0
  %7 = getelementptr inbounds nuw %"struct.std::_Vector_base<OpenSubdiv::v3_6_0::Vtr::internal::Refinement *, std::allocator<OpenSubdiv::v3_6_0::Vtr::internal::Refinement *>>::_Vector_impl_data", ptr %6, i32 0, i32 0
  %8 = load ptr, ptr %7, align 8
  %9 = load i64, ptr %4, align 8
  %10 = getelementptr inbounds ptr, ptr %8, i64 %9
  ret ptr %10
}

; Function Attrs: mustprogress nounwind uwtable
define linkonce_odr noundef i64 @_ZNKSt6vectorIPN10OpenSubdiv6v3_6_03Vtr8internal10RefinementESaIS5_EE4sizeEv(ptr noundef nonnull align 8 dereferenceable(24) %0) #3 comdat align 2 {
  %2 = alloca ptr, align 8
  store ptr %0, ptr %2, align 8
  %3 = load ptr, ptr %2, align 8
  %4 = getelementptr inbounds nuw %"struct.std::_Vector_base.1", ptr %3, i32 0, i32 0
  %5 = getelementptr inbounds nuw %"struct.std::_Vector_base<OpenSubdiv::v3_6_0::Vtr::internal::Refinement *, std::allocator<OpenSubdiv::v3_6_0::Vtr::internal::Refinement *>>::_Vector_impl_data", ptr %4, i32 0, i32 1
  %6 = load ptr, ptr %5, align 8
  %7 = getelementptr inbounds nuw %"struct.std::_Vector_base.1", ptr %3, i32 0, i32 0
  %8 = getelementptr inbounds nuw %"struct.std::_Vector_base<OpenSubdiv::v3_6_0::Vtr::internal::Refinement *, std::allocator<OpenSubdiv::v3_6_0::Vtr::internal::Refinement *>>::_Vector_impl_data", ptr %7, i32 0, i32 0
  %9 = load ptr, ptr %8, align 8
  %10 = ptrtoint ptr %6 to i64
  %11 = ptrtoint ptr %9 to i64
  %12 = sub i64 %10, %11
  %13 = sdiv exact i64 %12, 8
  ret i64 %13
}

; Function Attrs: mustprogress nounwind uwtable
define linkonce_odr noundef nonnull align 8 dereferenceable(8) ptr @_ZNSt6vectorIPN10OpenSubdiv6v3_6_03Vtr8internal5LevelESaIS5_EEixEm(ptr noundef nonnull align 8 dereferenceable(24) %0, i64 noundef %1) #3 comdat align 2 {
  %3 = alloca ptr, align 8
  %4 = alloca i64, align 8
  store ptr %0, ptr %3, align 8
  store i64 %1, ptr %4, align 8
  %5 = load ptr, ptr %3, align 8
  %6 = getelementptr inbounds nuw %"struct.std::_Vector_base", ptr %5, i32 0, i32 0
  %7 = getelementptr inbounds nuw %"struct.std::_Vector_base<OpenSubdiv::v3_6_0::Vtr::internal::Level *, std::allocator<OpenSubdiv::v3_6_0::Vtr::internal::Level *>>::_Vector_impl_data", ptr %6, i32 0, i32 0
  %8 = load ptr, ptr %7, align 8
  %9 = load i64, ptr %4, align 8
  %10 = getelementptr inbounds ptr, ptr %8, i64 %9
  ret ptr %10
}

; Function Attrs: mustprogress nounwind uwtable
define linkonce_odr noundef nonnull align 8 dereferenceable(24) ptr @_ZNSt6vectorIN10OpenSubdiv6v3_6_03Far13TopologyLevelESaIS3_EEixEm(ptr noundef nonnull align 8 dereferenceable(24) %0, i64 noundef %1) #3 comdat align 2 {
  %3 = alloca ptr, align 8
  %4 = alloca i64, align 8
  store ptr %0, ptr %3, align 8
  store i64 %1, ptr %4, align 8
  %5 = load ptr, ptr %3, align 8
  %6 = getelementptr inbounds nuw %"struct.std::_Vector_base.6", ptr %5, i32 0, i32 0
  %7 = getelementptr inbounds nuw %"struct.std::_Vector_base<OpenSubdiv::v3_6_0::Far::TopologyLevel, std::allocator<OpenSubdiv::v3_6_0::Far::TopologyLevel>>::_Vector_impl_data", ptr %6, i32 0, i32 0
  %8 = load ptr, ptr %7, align 8
  %9 = load i64, ptr %4, align 8
  %10 = getelementptr inbounds %"class.OpenSubdiv::v3_6_0::Far::TopologyLevel", ptr %8, i64 %9
  ret ptr %10
}

; Function Attrs: mustprogress nounwind uwtable
define linkonce_odr noundef i64 @_ZNKSt6vectorIPN10OpenSubdiv6v3_6_03Vtr8internal5LevelESaIS5_EE4sizeEv(ptr noundef nonnull align 8 dereferenceable(24) %0) #3 comdat align 2 {
  %2 = alloca ptr, align 8
  store ptr %0, ptr %2, align 8
  %3 = load ptr, ptr %2, align 8
  %4 = getelementptr inbounds nuw %"struct.std::_Vector_base", ptr %3, i32 0, i32 0
  %5 = getelementptr inbounds nuw %"struct.std::_Vector_base<OpenSubdiv::v3_6_0::Vtr::internal::Level *, std::allocator<OpenSubdiv::v3_6_0::Vtr::internal::Level *>>::_Vector_impl_data", ptr %4, i32 0, i32 1
  %6 = load ptr, ptr %5, align 8
  %7 = getelementptr inbounds nuw %"struct.std::_Vector_base", ptr %3, i32 0, i32 0
  %8 = getelementptr inbounds nuw %"struct.std::_Vector_base<OpenSubdiv::v3_6_0::Vtr::internal::Level *, std::allocator<OpenSubdiv::v3_6_0::Vtr::internal::Level *>>::_Vector_impl_data", ptr %7, i32 0, i32 0
  %9 = load ptr, ptr %8, align 8
  %10 = ptrtoint ptr %6 to i64
  %11 = ptrtoint ptr %9 to i64
  %12 = sub i64 %10, %11
  %13 = sdiv exact i64 %12, 8
  ret i64 %13
}

; Function Attrs: mustprogress uwtable
define void @_ZN10OpenSubdiv6v3_6_03Far15TopologyRefiner17assembleFarLevelsEv(ptr noundef nonnull align 8 dereferenceable(120) %0) #0 align 2 {
  %2 = alloca ptr, align 8
  %3 = alloca i32, align 4
  %4 = alloca i32, align 4
  store ptr %0, ptr %2, align 8
  %5 = load ptr, ptr %2, align 8
  %6 = getelementptr inbounds nuw %"class.OpenSubdiv::v3_6_0::Far::TopologyRefiner", ptr %5, i32 0, i32 14
  %7 = getelementptr inbounds nuw %"class.OpenSubdiv::v3_6_0::Far::TopologyRefiner", ptr %5, i32 0, i32 12
  %8 = call noundef i64 @_ZNKSt6vectorIPN10OpenSubdiv6v3_6_03Vtr8internal5LevelESaIS5_EE4sizeEv(ptr noundef nonnull align 8 dereferenceable(24) %7) #10
  call void @_ZNSt6vectorIN10OpenSubdiv6v3_6_03Far13TopologyLevelESaIS3_EE6resizeEm(ptr noundef nonnull align 8 dereferenceable(24) %6, i64 noundef %8)
  %9 = getelementptr inbounds nuw %"class.OpenSubdiv::v3_6_0::Far::TopologyRefiner", ptr %5, i32 0, i32 14
  %10 = call noundef nonnull align 8 dereferenceable(24) ptr @_ZNSt6vectorIN10OpenSubdiv6v3_6_03Far13TopologyLevelESaIS3_EEixEm(ptr noundef nonnull align 8 dereferenceable(24) %9, i64 noundef 0) #10
  %11 = getelementptr inbounds nuw %"class.OpenSubdiv::v3_6_0::Far::TopologyLevel", ptr %10, i32 0, i32 1
  store ptr null, ptr %11, align 8
  %12 = getelementptr inbounds nuw %"class.OpenSubdiv::v3_6_0::Far::TopologyRefiner", ptr %5, i32 0, i32 12
  %13 = call noundef nonnull align 8 dereferenceable(8) ptr @_ZNSt6vectorIPN10OpenSubdiv6v3_6_03Vtr8internal5LevelESaIS5_EEixEm(ptr noundef nonnull align 8 dereferenceable(24) %12, i64 noundef 0) #10
  %14 = load ptr, ptr %13, align 8
  %15 = getelementptr inbounds nuw %"class.OpenSubdiv::v3_6_0::Far::TopologyRefiner", ptr %5, i32 0, i32 14
  %16 = call noundef nonnull align 8 dereferenceable(24) ptr @_ZNSt6vectorIN10OpenSubdiv6v3_6_03Far13TopologyLevelESaIS3_EEixEm(ptr noundef nonnull align 8 dereferenceable(24) %15, i64 noundef 0) #10
  %17 = getelementptr inbounds nuw %"class.OpenSubdiv::v3_6_0::Far::TopologyLevel", ptr %16, i32 0, i32 0
  store ptr %14, ptr %17, align 8
  %18 = getelementptr inbounds nuw %"class.OpenSubdiv::v3_6_0::Far::TopologyRefiner", ptr %5, i32 0, i32 14
  %19 = call noundef nonnull align 8 dereferenceable(24) ptr @_ZNSt6vectorIN10OpenSubdiv6v3_6_03Far13TopologyLevelESaIS3_EEixEm(ptr noundef nonnull align 8 dereferenceable(24) %18, i64 noundef 0) #10
  %20 = getelementptr inbounds nuw %"class.OpenSubdiv::v3_6_0::Far::TopologyLevel", ptr %19, i32 0, i32 2
  store ptr null, ptr %20, align 8
  %21 = getelementptr inbounds nuw %"class.OpenSubdiv::v3_6_0::Far::TopologyRefiner", ptr %5, i32 0, i32 13
  %22 = call noundef i64 @_ZNKSt6vectorIPN10OpenSubdiv6v3_6_03Vtr8internal10RefinementESaIS5_EE4sizeEv(ptr noundef nonnull align 8 dereferenceable(24) %21) #10
  %23 = trunc i64 %22 to i32
  store i32 %23, ptr %3, align 4
  %24 = load i32, ptr %3, align 4
  %25 = icmp ne i32 %24, 0
  br i1 %25, label %26, label %99

26:                                               ; preds = %1
  %27 = getelementptr inbounds nuw %"class.OpenSubdiv::v3_6_0::Far::TopologyRefiner", ptr %5, i32 0, i32 13
  %28 = call noundef nonnull align 8 dereferenceable(8) ptr @_ZNSt6vectorIPN10OpenSubdiv6v3_6_03Vtr8internal10RefinementESaIS5_EEixEm(ptr noundef nonnull align 8 dereferenceable(24) %27, i64 noundef 0) #10
  %29 = load ptr, ptr %28, align 8
  %30 = getelementptr inbounds nuw %"class.OpenSubdiv::v3_6_0::Far::TopologyRefiner", ptr %5, i32 0, i32 14
  %31 = call noundef nonnull align 8 dereferenceable(24) ptr @_ZNSt6vectorIN10OpenSubdiv6v3_6_03Far13TopologyLevelESaIS3_EEixEm(ptr noundef nonnull align 8 dereferenceable(24) %30, i64 noundef 0) #10
  %32 = getelementptr inbounds nuw %"class.OpenSubdiv::v3_6_0::Far::TopologyLevel", ptr %31, i32 0, i32 2
  store ptr %29, ptr %32, align 8
  store i32 1, ptr %4, align 4
  br label %33

33:                                               ; preds = %69, %26
  %34 = load i32, ptr %4, align 4
  %35 = load i32, ptr %3, align 4
  %36 = icmp slt i32 %34, %35
  br i1 %36, label %37, label %72

37:                                               ; preds = %33
  %38 = getelementptr inbounds nuw %"class.OpenSubdiv::v3_6_0::Far::TopologyRefiner", ptr %5, i32 0, i32 13
  %39 = load i32, ptr %4, align 4
  %40 = sub nsw i32 %39, 1
  %41 = sext i32 %40 to i64
  %42 = call noundef nonnull align 8 dereferenceable(8) ptr @_ZNSt6vectorIPN10OpenSubdiv6v3_6_03Vtr8internal10RefinementESaIS5_EEixEm(ptr noundef nonnull align 8 dereferenceable(24) %38, i64 noundef %41) #10
  %43 = load ptr, ptr %42, align 8
  %44 = getelementptr inbounds nuw %"class.OpenSubdiv::v3_6_0::Far::TopologyRefiner", ptr %5, i32 0, i32 14
  %45 = load i32, ptr %4, align 4
  %46 = sext i32 %45 to i64
  %47 = call noundef nonnull align 8 dereferenceable(24) ptr @_ZNSt6vectorIN10OpenSubdiv6v3_6_03Far13TopologyLevelESaIS3_EEixEm(ptr noundef nonnull align 8 dereferenceable(24) %44, i64 noundef %46) #10
  %48 = getelementptr inbounds nuw %"class.OpenSubdiv::v3_6_0::Far::TopologyLevel", ptr %47, i32 0, i32 1
  store ptr %43, ptr %48, align 8
  %49 = getelementptr inbounds nuw %"class.OpenSubdiv::v3_6_0::Far::TopologyRefiner", ptr %5, i32 0, i32 12
  %50 = load i32, ptr %4, align 4
  %51 = sext i32 %50 to i64
  %52 = call noundef nonnull align 8 dereferenceable(8) ptr @_ZNSt6vectorIPN10OpenSubdiv6v3_6_03Vtr8internal5LevelESaIS5_EEixEm(ptr noundef nonnull align 8 dereferenceable(24) %49, i64 noundef %51) #10
  %53 = load ptr, ptr %52, align 8
  %54 = getelementptr inbounds nuw %"class.OpenSubdiv::v3_6_0::Far::TopologyRefiner", ptr %5, i32 0, i32 14
  %55 = load i32, ptr %4, align 4
  %56 = sext i32 %55 to i64
  %57 = call noundef nonnull align 8 dereferenceable(24) ptr @_ZNSt6vectorIN10OpenSubdiv6v3_6_03Far13TopologyLevelESaIS3_EEixEm(ptr noundef nonnull align 8 dereferenceable(24) %54, i64 noundef %56) #10
  %58 = getelementptr inbounds nuw %"class.OpenSubdiv::v3_6_0::Far::TopologyLevel", ptr %57, i32 0, i32 0
  store ptr %53, ptr %58, align 8
  %59 = getelementptr inbounds nuw %"class.OpenSubdiv::v3_6_0::Far::TopologyRefiner", ptr %5, i32 0, i32 13
  %60 = load i32, ptr %4, align 4
  %61 = sext i32 %60 to i64
  %62 = call noundef nonnull align 8 dereferenceable(8) ptr @_ZNSt6vectorIPN10OpenSubdiv6v3_6_03Vtr8internal10RefinementESaIS5_EEixEm(ptr noundef nonnull align 8 dereferenceable(24) %59, i64 noundef %61) #10
  %63 = load ptr, ptr %62, align 8
  %64 = getelementptr inbounds nuw %"class.OpenSubdiv::v3_6_0::Far::TopologyRefiner", ptr %5, i32 0, i32 14
  %65 = load i32, ptr %4, align 4
  %66 = sext i32 %65 to i64
  %67 = call noundef nonnull align 8 dereferenceable(24) ptr @_ZNSt6vectorIN10OpenSubdiv6v3_6_03Far13TopologyLevelESaIS3_EEixEm(ptr noundef nonnull align 8 dereferenceable(24) %64, i64 noundef %66) #10
  %68 = getelementptr inbounds nuw %"class.OpenSubdiv::v3_6_0::Far::TopologyLevel", ptr %67, i32 0, i32 2
  store ptr %63, ptr %68, align 8
  br label %69

69:                                               ; preds = %37
  %70 = load i32, ptr %4, align 4
  %71 = add nsw i32 %70, 1
  store i32 %71, ptr %4, align 4
  br label %33, !llvm.loop !5

72:                                               ; preds = %33
  %73 = getelementptr inbounds nuw %"class.OpenSubdiv::v3_6_0::Far::TopologyRefiner", ptr %5, i32 0, i32 13
  %74 = load i32, ptr %3, align 4
  %75 = sub nsw i32 %74, 1
  %76 = sext i32 %75 to i64
  %77 = call noundef nonnull align 8 dereferenceable(8) ptr @_ZNSt6vectorIPN10OpenSubdiv6v3_6_03Vtr8internal10RefinementESaIS5_EEixEm(ptr noundef nonnull align 8 dereferenceable(24) %73, i64 noundef %76) #10
  %78 = load ptr, ptr %77, align 8
  %79 = getelementptr inbounds nuw %"class.OpenSubdiv::v3_6_0::Far::TopologyRefiner", ptr %5, i32 0, i32 14
  %80 = load i32, ptr %3, align 4
  %81 = sext i32 %80 to i64
  %82 = call noundef nonnull align 8 dereferenceable(24) ptr @_ZNSt6vectorIN10OpenSubdiv6v3_6_03Far13TopologyLevelESaIS3_EEixEm(ptr noundef nonnull align 8 dereferenceable(24) %79, i64 noundef %81) #10
  %83 = getelementptr inbounds nuw %"class.OpenSubdiv::v3_6_0::Far::TopologyLevel", ptr %82, i32 0, i32 1
  store ptr %78, ptr %83, align 8
  %84 = getelementptr inbounds nuw %"class.OpenSubdiv::v3_6_0::Far::TopologyRefiner", ptr %5, i32 0, i32 12
  %85 = load i32, ptr %3, align 4
  %86 = sext i32 %85 to i64
  %87 = call noundef nonnull align 8 dereferenceable(8) ptr @_ZNSt6vectorIPN10OpenSubdiv6v3_6_03Vtr8internal5LevelESaIS5_EEixEm(ptr noundef nonnull align 8 dereferenceable(24) %84, i64 noundef %86) #10
  %88 = load ptr, ptr %87, align 8
  %89 = getelementptr inbounds nuw %"class.OpenSubdiv::v3_6_0::Far::TopologyRefiner", ptr %5, i32 0, i32 14
  %90 = load i32, ptr %3, align 4
  %91 = sext i32 %90 to i64
  %92 = call noundef nonnull align 8 dereferenceable(24) ptr @_ZNSt6vectorIN10OpenSubdiv6v3_6_03Far13TopologyLevelESaIS3_EEixEm(ptr noundef nonnull align 8 dereferenceable(24) %89, i64 noundef %91) #10
  %93 = getelementptr inbounds nuw %"class.OpenSubdiv::v3_6_0::Far::TopologyLevel", ptr %92, i32 0, i32 0
  store ptr %88, ptr %93, align 8
  %94 = getelementptr inbounds nuw %"class.OpenSubdiv::v3_6_0::Far::TopologyRefiner", ptr %5, i32 0, i32 14
  %95 = load i32, ptr %3, align 4
  %96 = sext i32 %95 to i64
  %97 = call noundef nonnull align 8 dereferenceable(24) ptr @_ZNSt6vectorIN10OpenSubdiv6v3_6_03Far13TopologyLevelESaIS3_EEixEm(ptr noundef nonnull align 8 dereferenceable(24) %94, i64 noundef %96) #10
  %98 = getelementptr inbounds nuw %"class.OpenSubdiv::v3_6_0::Far::TopologyLevel", ptr %97, i32 0, i32 2
  store ptr null, ptr %98, align 8
  br label %99

99:                                               ; preds = %72, %1
  ret void
}