; Function Attrs: mustprogress uwtable
define void @_ZN10OpenSubdiv6v3_6_03Far15TopologyRefiner17assembleFarLevelsEv(ptr noundef nonnull align 8 dereferenceable(120) %0) local_unnamed_addr #0 align 2 {
  %2 = getelementptr inbounds nuw i8, ptr %0, i64 96
  %3 = getelementptr inbounds nuw i8, ptr %0, i64 48
  %4 = getelementptr inbounds i8, ptr %0, i64 56
  %5 = load ptr, ptr %4, align 8
  %6 = load ptr, ptr %3, align 8
  %7 = ptrtoint ptr %5 to i64
  %8 = ptrtoint ptr %6 to i64
  %9 = sub i64 %7, %8
  %10 = ashr exact i64 %9, 3
  tail call void @_ZNSt6vectorIN10OpenSubdiv6v3_6_03Far13TopologyLevelESaIS3_EE6resizeEm(ptr noundef nonnull align 8 dereferenceable(24) %2, i64 noundef %10)
  %11 = load ptr, ptr %2, align 8
  %12 = getelementptr inbounds nuw i8, ptr %11, i64 8
  store ptr null, ptr %12, align 8
  %13 = load ptr, ptr %3, align 8
  %14 = load ptr, ptr %13, align 8
  %15 = load ptr, ptr %2, align 8
  store ptr %14, ptr %15, align 8
  %16 = load ptr, ptr %2, align 8
  %17 = getelementptr inbounds nuw i8, ptr %16, i64 16
  store ptr null, ptr %17, align 8
  %18 = getelementptr inbounds nuw i8, ptr %0, i64 72
  %19 = getelementptr inbounds i8, ptr %0, i64 80
  %20 = load ptr, ptr %19, align 8
  %21 = load ptr, ptr %18, align 8
  %22 = ptrtoint ptr %20 to i64
  %23 = ptrtoint ptr %21 to i64
  %24 = sub i64 %22, %23
  %25 = lshr exact i64 %24, 3
  %26 = trunc i64 %25 to i32
  %.not = icmp eq i32 %26, 0
  br i1 %.not, label %63, label %27

27:                                               ; preds = %1
  %28 = load ptr, ptr %21, align 8
  %29 = load ptr, ptr %2, align 8
  %30 = getelementptr inbounds nuw i8, ptr %29, i64 16
  store ptr %28, ptr %30, align 8
  %31 = icmp sgt i32 %26, 1
  br i1 %31, label %.lr.ph.preheader, label %._crit_edge

.lr.ph.preheader:                                 ; preds = %27
  %wide.trip.count = and i64 %25, 2147483647
  br label %.lr.ph

.lr.ph:                                           ; preds = %.lr.ph.preheader, %.lr.ph
  %indvars.iv = phi i64 [ 1, %.lr.ph.preheader ], [ %indvars.iv.next, %.lr.ph ]
  %32 = load ptr, ptr %18, align 8
  %33 = getelementptr ptr, ptr %32, i64 %indvars.iv
  %34 = getelementptr i8, ptr %33, i64 -8
  %35 = load ptr, ptr %34, align 8
  %36 = load ptr, ptr %2, align 8
  %37 = getelementptr inbounds %"class.OpenSubdiv::v3_6_0::Far::TopologyLevel", ptr %36, i64 %indvars.iv, i32 1
  store ptr %35, ptr %37, align 8
  %38 = load ptr, ptr %3, align 8
  %39 = getelementptr inbounds ptr, ptr %38, i64 %indvars.iv
  %40 = load ptr, ptr %39, align 8
  %41 = load ptr, ptr %2, align 8
  %42 = getelementptr inbounds %"class.OpenSubdiv::v3_6_0::Far::TopologyLevel", ptr %41, i64 %indvars.iv
  store ptr %40, ptr %42, align 8
  %43 = load ptr, ptr %18, align 8
  %44 = getelementptr inbounds ptr, ptr %43, i64 %indvars.iv
  %45 = load ptr, ptr %44, align 8
  %46 = load ptr, ptr %2, align 8
  %47 = getelementptr inbounds %"class.OpenSubdiv::v3_6_0::Far::TopologyLevel", ptr %46, i64 %indvars.iv, i32 2
  store ptr %45, ptr %47, align 8
  %indvars.iv.next = add nuw nsw i64 %indvars.iv, 1
  %exitcond.not = icmp eq i64 %indvars.iv.next, %wide.trip.count
  br i1 %exitcond.not, label %._crit_edge, label %.lr.ph, !llvm.loop !11

._crit_edge:                                      ; preds = %.lr.ph, %27
  %48 = shl i64 %24, 29
  %sext = add i64 %48, -4294967296
  %49 = load ptr, ptr %18, align 8
  %50 = ashr exact i64 %sext, 29
  %51 = getelementptr inbounds i8, ptr %49, i64 %50
  %52 = load ptr, ptr %51, align 8
  %53 = ashr exact i64 %48, 32
  %54 = load ptr, ptr %2, align 8
  %55 = getelementptr inbounds %"class.OpenSubdiv::v3_6_0::Far::TopologyLevel", ptr %54, i64 %53, i32 1
  store ptr %52, ptr %55, align 8
  %56 = load ptr, ptr %3, align 8
  %57 = getelementptr inbounds ptr, ptr %56, i64 %53
  %58 = load ptr, ptr %57, align 8
  %59 = load ptr, ptr %2, align 8
  %60 = getelementptr inbounds %"class.OpenSubdiv::v3_6_0::Far::TopologyLevel", ptr %59, i64 %53
  store ptr %58, ptr %60, align 8
  %61 = load ptr, ptr %2, align 8
  %62 = getelementptr inbounds %"class.OpenSubdiv::v3_6_0::Far::TopologyLevel", ptr %61, i64 %53, i32 2
  store ptr null, ptr %62, align 8
  br label %63

63:                                               ; preds = %._crit_edge, %1
  ret void
}